target datalayout = "e-m:e-p270:32:32-p271:32:32-p272:64:64-i64:64-i128:128-f80:128-n8:16:32:64-S128"
target triple = "x86_64-pc-linux-gnu"

%struct._asn1_ctx_t = type { i32, i32, i8, ptr, ptr, ptr, ptr, ptr, %struct.anon, %struct.anon.2, %struct.anon.3, ptr }
%struct.anon = type { i32, i8, i8, i8, ptr, ptr, i32, i32, ptr, ptr, ptr, %union.anon }
%union.anon = type { %struct.anon.0 }
%struct.anon.0 = type { ptr }
%struct.anon.2 = type { ptr, ptr, ptr }
%struct.anon.3 = type { i32, i8, ptr, i32, i32, ptr, ptr, ptr, %union.anon.4 }
%union.anon.4 = type { %struct.anon.5 }
%struct.anon.5 = type { ptr }

@hf_lpp_toa_ext_v1240 = internal global i32 0, align 4
@.str.6928 = private unnamed_addr constant [10 x i8] c"%u s (%u)\00", align 1

; Function Attrs: null_pointer_is_valid sspstrong uwtable
define internal i32 @dissect_lpp_T_toa_ext_v1240(ptr noundef %0, i32 noundef %1, ptr noundef %2, ptr noundef %3, i32 noundef %4) #0 {
  %6 = alloca ptr, align 8
  %7 = alloca i32, align 4
  %8 = alloca ptr, align 8
  %9 = alloca ptr, align 8
  %10 = alloca i32, align 4
  %11 = alloca i32, align 4
  %12 = alloca i32, align 4
  %13 = alloca i32, align 4
  %14 = alloca i32, align 4
  %15 = alloca i32, align 4
  store ptr %0, ptr %6, align 8
  store i32 %1, ptr %7, align 4
  store ptr %2, ptr %8, align 8
  store ptr %3, ptr %9, align 8
  store i32 %4, ptr %10, align 4
  call void @llvm.lifetime.start.p0(i64 4, ptr %11) #8
  call void @llvm.lifetime.start.p0(i64 4, ptr %12) #8
  call void @llvm.lifetime.start.p0(i64 4, ptr %13) #8
  call void @llvm.lifetime.start.p0(i64 4, ptr %14) #8
  %16 = load i32, ptr %7, align 4
  store i32 %16, ptr %14, align 4
  call void @llvm.lifetime.start.p0(i64 4, ptr %15) #8
  %17 = load ptr, ptr %8, align 8
  %18 = getelementptr inbounds nuw %struct._asn1_ctx_t, ptr %17, i32 0, i32 7
  %19 = load ptr, ptr %18, align 8
  %20 = ptrtoint ptr %19 to i64
  %21 = trunc i64 %20 to i32
  store i32 %21, ptr %15, align 4
  %22 = load ptr, ptr %6, align 8
  %23 = load i32, ptr %7, align 4
  %24 = load ptr, ptr %8, align 8
  %25 = load ptr, ptr %9, align 8
  %26 = load i32, ptr %10, align 4
  %27 = call i32 @dissect_per_constrained_integer(ptr noundef %22, i32 noundef %23, ptr noundef %24, ptr noundef %25, i32 noundef %26, i32 noundef 256, i32 noundef 1023, ptr noundef %11, i1 noundef zeroext false)
  store i32 %27, ptr %7, align 4
  %28 = load i32, ptr %7, align 4
  %29 = load i32, ptr %14, align 4
  %30 = sub i32 %28, %29
  %31 = ashr i32 %30, 3
  %32 = icmp ne i32 %31, 0
  br i1 %32, label %33, label %38

33:                                               ; preds = %5
  %34 = load i32, ptr %7, align 4
  %35 = load i32, ptr %14, align 4
  %36 = sub i32 %34, %35
  %37 = ashr i32 %36, 3
  br label %39

38:                                               ; preds = %5
  br label %39

39:                                               ; preds = %38, %33
  %40 = phi i32 [ %37, %33 ], [ 1, %38 ]
  store i32 %40, ptr %13, align 4
  %41 = load i32, ptr %15, align 4
  %42 = icmp eq i32 %41, 3
  br i1 %42, label %43, label %46

43:                                               ; preds = %39
  %44 = load i32, ptr %11, align 4
  %45 = mul i32 600, %44
  br label %49

46:                                               ; preds = %39
  %47 = load i32, ptr %11, align 4
  %48 = mul i32 4096, %47
  br label %49

49:                                               ; preds = %46, %43
  %50 = phi i32 [ %45, %43 ], [ %48, %46 ]
  store i32 %50, ptr %12, align 4
  %51 = load ptr, ptr %9, align 8
  %52 = load i32, ptr @hf_lpp_toa_ext_v1240, align 4
  %53 = load ptr, ptr %6, align 8
  %54 = load i32, ptr %14, align 4
  %55 = load i32, ptr %13, align 4
  %56 = load i32, ptr %11, align 4
  %57 = load i32, ptr %12, align 4
  %58 = load i32, ptr %11, align 4
  %59 = call ptr (ptr, i32, ptr, i32, i32, i32, ptr, ...) @proto_tree_add_uint_format_value(ptr noundef %51, i32 noundef %52, ptr noundef %53, i32 noundef %54, i32 noundef %55, i32 noundef %56, ptr noundef @.str.6928, i32 noundef %57, i32 noundef %58)
  %60 = load ptr, ptr %8, align 8
  %61 = getelementptr inbounds nuw %struct._asn1_ctx_t, ptr %60, i32 0, i32 4
  store ptr %59, ptr %61, align 8
  %62 = load i32, ptr %7, align 4
  call void @llvm.lifetime.end.p0(i64 4, ptr %15) #8
  call void @llvm.lifetime.end.p0(i64 4, ptr %14) #8
  call void @llvm.lifetime.end.p0(i64 4, ptr %13) #8
  call void @llvm.lifetime.end.p0(i64 4, ptr %12) #8
  call void @llvm.lifetime.end.p0(i64 4, ptr %11) #8
  ret i32 %62
}