; Function Attrs: null_pointer_is_valid sspstrong uwtable
define internal i32 @dissect_lpp_T_toa_ext_v1240(ptr noundef %0, i32 noundef %1, ptr noundef %2, ptr noundef %3, i32 noundef %4) #0 {
  %6 = alloca i32, align 4
  call void @llvm.lifetime.start.p0(i64 4, ptr nonnull %6) #10
  %7 = getelementptr inbounds nuw i8, ptr %2, i64 48
  %8 = load ptr, ptr %7, align 8
  %9 = ptrtoint ptr %8 to i64
  %10 = call i32 @dissect_per_constrained_integer(ptr noundef %0, i32 noundef %1, ptr noundef %2, ptr noundef %3, i32 noundef %4, i32 noundef 256, i32 noundef 1023, ptr noundef nonnull %6, i1 noundef zeroext false)
  %11 = sub i32 %10, %1
  %12 = call i32 @llvm.umax.i32(i32 %11, i32 8)
  %13 = ashr i32 %12, 3
  %14 = and i64 %9, 4294967295
  %15 = icmp eq i64 %14, 3
  %16 = load i32, ptr %6, align 4
  %17 = mul i32 %16, 600
  %18 = shl i32 %16, 12
  %19 = select i1 %15, i32 %17, i32 %18
  %20 = load i32, ptr @hf_lpp_toa_ext_v1240, align 4
  %21 = call ptr (ptr, i32, ptr, i32, i32, i32, ptr, ...) @proto_tree_add_uint_format_value(ptr noundef %3, i32 noundef %20, ptr noundef %0, i32 noundef %1, i32 noundef %13, i32 noundef %16, ptr noundef nonnull @.str.6928, i32 noundef %19, i32 noundef %16)
  %22 = getelementptr inbounds nuw i8, ptr %2, i64 24
  store ptr %21, ptr %22, align 8
  call void @llvm.lifetime.end.p0(i64 4, ptr nonnull %6) #10
  ret i32 %10
}